; Function Attrs: mustprogress uwtable
define internal void @_ZNK6google8protobuf8compiler3cpp12_GLOBAL__N_117SingularPrimitive23GenerateConstructorCodeEPNS0_2io7PrinterE(ptr nocapture noundef nonnull readonly align 8 dereferenceable(104) %this, ptr noundef %p) unnamed_addr #3 align 2 {
entry:
  %is_oneof_.i = getelementptr inbounds i8, ptr %this, i64 76
  %0 = load i8, ptr %is_oneof_.i, align 4
  %1 = and i8 %0, 1
  %tobool.i.not = icmp eq i8 %1, 0
  br i1 %tobool.i.not, label %return, label %if.end

if.end:                                           ; preds = %entry
  tail call void @_ZN6google8protobuf2io7Printer4EmitEN4absl12lts_202308024SpanIKNS2_3SubEEESt17basic_string_viewIcSt11char_traitsIcEENS2_14SourceLocationE(ptr noundef nonnull align 8 dereferenceable(256) %p, ptr null, i64 0, i64 66, ptr nonnull @.str.34)
  br label %return

return:                                           ; preds = %entry, %if.end
  ret void
}